
STM32_Revision.elf:     file format elf32-littlearm

Sections:
Idx Name          Size      VMA       LMA       File off  Algn
  0 .isr_vector   00000194  08000000  08000000  00010000  2**0
                  CONTENTS, ALLOC, LOAD, READONLY, DATA
  1 .text         00000760  08000194  08000194  00010194  2**2
                  CONTENTS, ALLOC, LOAD, READONLY, CODE
  2 .rodata       00000000  080008f4  080008f4  00020020  2**0
                  CONTENTS, ALLOC, LOAD, DATA
  3 .ARM.extab    00000000  080008f4  080008f4  00020020  2**0
                  CONTENTS
  4 .ARM          00000000  080008f4  080008f4  00020020  2**0
                  CONTENTS
  5 .preinit_array 00000000  080008f4  080008f4  00020020  2**0
                  CONTENTS, ALLOC, LOAD, DATA
  6 .init_array   00000004  080008f4  080008f4  000108f4  2**2
                  CONTENTS, ALLOC, LOAD, DATA
  7 .fini_array   00000004  080008f8  080008f8  000108f8  2**2
                  CONTENTS, ALLOC, LOAD, DATA
  8 .data         00000020  20000000  080008fc  00020000  2**2
                  CONTENTS, ALLOC, LOAD, DATA
  9 .bss          0000001c  20000020  0800091c  00020020  2**2
                  ALLOC
 10 ._user_heap_stack 00000604  2000003c  0800091c  0002003c  2**0
                  ALLOC
 11 .ARM.attributes 00000030  00000000  00000000  00020020  2**0
                  CONTENTS, READONLY
 12 .comment      00000043  00000000  00000000  00020050  2**0
                  CONTENTS, READONLY
 13 .debug_info   00001152  00000000  00000000  00020093  2**0
                  CONTENTS, READONLY, DEBUGGING, OCTETS
 14 .debug_abbrev 000004e3  00000000  00000000  000211e5  2**0
                  CONTENTS, READONLY, DEBUGGING, OCTETS
 15 .debug_aranges 000000f8  00000000  00000000  000216c8  2**3
                  CONTENTS, READONLY, DEBUGGING, OCTETS
 16 .debug_rnglists 000000a5  00000000  00000000  000217c0  2**0
                  CONTENTS, READONLY, DEBUGGING, OCTETS
 17 .debug_macro  00001759  00000000  00000000  00021865  2**0
                  CONTENTS, READONLY, DEBUGGING, OCTETS
 18 .debug_line   00001907  00000000  00000000  00022fbe  2**0
                  CONTENTS, READONLY, DEBUGGING, OCTETS
 19 .debug_str    000066da  00000000  00000000  000248c5  2**0
                  CONTENTS, READONLY, DEBUGGING, OCTETS
 20 .debug_frame  00000284  00000000  00000000  0002afa0  2**2
                  CONTENTS, READONLY, DEBUGGING, OCTETS
 21 .debug_line_str 00000064  00000000  00000000  0002b224  2**0
                  CONTENTS, READONLY, DEBUGGING, OCTETS

Disassembly of section .text:

08000194 <__do_global_dtors_aux>:
 8000194:	b510      	push	{r4, lr}
 8000196:	4c05      	ldr	r4, [pc, #20]	; (80001ac <__do_global_dtors_aux+0x18>)
 8000198:	7823      	ldrb	r3, [r4, #0]
 800019a:	b933      	cbnz	r3, 80001aa <__do_global_dtors_aux+0x16>
 800019c:	4b04      	ldr	r3, [pc, #16]	; (80001b0 <__do_global_dtors_aux+0x1c>)
 800019e:	b113      	cbz	r3, 80001a6 <__do_global_dtors_aux+0x12>
 80001a0:	4804      	ldr	r0, [pc, #16]	; (80001b4 <__do_global_dtors_aux+0x20>)
 80001a2:	f3af 8000 	nop.w
 80001a6:	2301      	movs	r3, #1
 80001a8:	7023      	strb	r3, [r4, #0]
 80001aa:	bd10      	pop	{r4, pc}
 80001ac:	20000020 	.word	0x20000020
 80001b0:	00000000 	.word	0x00000000
 80001b4:	080008dc 	.word	0x080008dc

080001b8 <frame_dummy>:
 80001b8:	b508      	push	{r3, lr}
 80001ba:	4b03      	ldr	r3, [pc, #12]	; (80001c8 <frame_dummy+0x10>)
 80001bc:	b11b      	cbz	r3, 80001c6 <frame_dummy+0xe>
 80001be:	4903      	ldr	r1, [pc, #12]	; (80001cc <frame_dummy+0x14>)
 80001c0:	4803      	ldr	r0, [pc, #12]	; (80001d0 <frame_dummy+0x18>)
 80001c2:	f3af 8000 	nop.w
 80001c6:	bd08      	pop	{r3, pc}
 80001c8:	00000000 	.word	0x00000000
 80001cc:	20000024 	.word	0x20000024
 80001d0:	080008dc 	.word	0x080008dc

080001d4 <systick_init>:
 * @return :
 * 			(RET_OK) : The function done successfully
 * 			(RET_ERROR) : The function has a problem to perform this action
 */
Std_RetType_t systick_init(void)
{
 80001d4:	b480      	push	{r7}
 80001d6:	b083      	sub	sp, #12
 80001d8:	af00      	add	r7, sp, #0
	Std_RetType_t ret = RET_OK;
 80001da:	2300      	movs	r3, #0
 80001dc:	71fb      	strb	r3, [r7, #7]
	uint32_t NO_Tick = 0x00ffffff;
 80001de:	f06f 437f 	mvn.w	r3, #4278190080	; 0xff000000
 80001e2:	603b      	str	r3, [r7, #0]
	if(NO_Tick > (STSTICK_LOAD_VALUE_POS << STSTICK_LOAD_VALUE_ACCESS)) /*resolution = 2^n = 2^24 = 16,777,216 = 1<<24*/
 80001e4:	683b      	ldr	r3, [r7, #0]
 80001e6:	f1b3 7f80 	cmp.w	r3, #16777216	; 0x1000000
 80001ea:	d902      	bls.n	80001f2 <systick_init+0x1e>
	{
		ret = RET_ERROR;
 80001ec:	2301      	movs	r3, #1
 80001ee:	71fb      	strb	r3, [r7, #7]
 80001f0:	e011      	b.n	8000216 <systick_init+0x42>
	}
	else
	{
		/*Disable the SYSTICK counter*/
		(SYSTICK->CSR) &=~ (SYSTICK_CSR_ENABLE_MASK << SYSTICK_CSR_ENABLE_POS);
 80001f2:	4b0c      	ldr	r3, [pc, #48]	; (8000224 <systick_init+0x50>)
 80001f4:	681b      	ldr	r3, [r3, #0]
 80001f6:	4a0b      	ldr	r2, [pc, #44]	; (8000224 <systick_init+0x50>)
 80001f8:	f023 0301 	bic.w	r3, r3, #1
 80001fc:	6013      	str	r3, [r2, #0]
		/*load the value into SYST_RVR in the range 0x00000001-0x00FFFFFF*/
		(SYSTICK->RVR)  = NO_Tick;
 80001fe:	4a09      	ldr	r2, [pc, #36]	; (8000224 <systick_init+0x50>)
 8000200:	683b      	ldr	r3, [r7, #0]
 8000202:	6053      	str	r3, [r2, #4]
		/*clear the SYSTICK counter value*/
		(SYSTICK->CVR)  = 0;
 8000204:	4b07      	ldr	r3, [pc, #28]	; (8000224 <systick_init+0x50>)
 8000206:	2200      	movs	r2, #0
 8000208:	609a      	str	r2, [r3, #8]
		/*Indicates the clock source: (0) = external clock , (1) = processor clock*/
#if SYSTICK_CLOCK_SOURCE==SYSTICK_CLOCK_SOURCE_DIV_1
		(SYSTICK->CSR) |= (SYSTICK_CSR_CLOCK_MASK << SYSTICK_CSR_CLOCK_POS);
 800020a:	4b06      	ldr	r3, [pc, #24]	; (8000224 <systick_init+0x50>)
 800020c:	681b      	ldr	r3, [r3, #0]
 800020e:	4a05      	ldr	r2, [pc, #20]	; (8000224 <systick_init+0x50>)
 8000210:	f043 0304 	orr.w	r3, r3, #4
 8000214:	6013      	str	r3, [r2, #0]
		(SYSTICK->CSR) &=~ (SYSTICK_CSR_CLOCK_MASK << SYSTICK_CSR_CLOCK_POS);
#else
#endif

	}
	return ret;
 8000216:	79fb      	ldrb	r3, [r7, #7]
}
 8000218:	4618      	mov	r0, r3
 800021a:	370c      	adds	r7, #12
 800021c:	46bd      	mov	sp, r7
 800021e:	f85d 7b04 	ldr.w	r7, [sp], #4
 8000222:	4770      	bx	lr
 8000224:	e000e010 	.word	0xe000e010

08000228 <systick_wait_blocking>:
 * @return :
 * 			(RET_OK) : The function done successfully
 * 			(RET_ERROR) : The function has a problem to perform this action
 */
Std_RetType_t systick_wait_blocking(uint32_t no_ticks)
{
 8000228:	b480      	push	{r7}
 800022a:	b085      	sub	sp, #20
 800022c:	af00      	add	r7, sp, #0
 800022e:	6078      	str	r0, [r7, #4]
	Std_RetType_t ret = RET_OK;
 8000230:	2300      	movs	r3, #0
 8000232:	73fb      	strb	r3, [r7, #15]
	if(no_ticks > (STSTICK_LOAD_VALUE_POS << STSTICK_LOAD_VALUE_ACCESS)) /*resolution = 2^n = 2^24 = 16,777,216 = 1<<24*/
 8000234:	687b      	ldr	r3, [r7, #4]
 8000236:	f1b3 7f80 	cmp.w	r3, #16777216	; 0x1000000
 800023a:	d902      	bls.n	8000242 <systick_wait_blocking+0x1a>
	{
		ret = RET_ERROR;
 800023c:	2301      	movs	r3, #1
 800023e:	73fb      	strb	r3, [r7, #15]
 8000240:	e012      	b.n	8000268 <systick_wait_blocking+0x40>
	}
	else
	{
		/*load the value into SYST_RVR in the range 0x00000001-0x00FFFFFF*/
		(SYSTICK->RVR)  = no_ticks;
 8000242:	4a0d      	ldr	r2, [pc, #52]	; (8000278 <systick_wait_blocking+0x50>)
 8000244:	687b      	ldr	r3, [r7, #4]
 8000246:	6053      	str	r3, [r2, #4]
		/*Enable the SYSTICK counter*/
		(SYSTICK->CSR) |= (SYSTICK_CSR_ENABLE_MASK << SYSTICK_CSR_ENABLE_POS);
 8000248:	4b0b      	ldr	r3, [pc, #44]	; (8000278 <systick_wait_blocking+0x50>)
 800024a:	681b      	ldr	r3, [r3, #0]
 800024c:	4a0a      	ldr	r2, [pc, #40]	; (8000278 <systick_wait_blocking+0x50>)
 800024e:	f043 0301 	orr.w	r3, r3, #1
 8000252:	6013      	str	r3, [r2, #0]
		/*COUNTFLAG Returns 1 if timer counted to 0 since last time this was read*/
		while(!READ_BIT(SYSTICK->CSR,SYSTICK_CSR_COUNTFLAG_POS));
 8000254:	bf00      	nop
 8000256:	4b08      	ldr	r3, [pc, #32]	; (8000278 <systick_wait_blocking+0x50>)
 8000258:	681b      	ldr	r3, [r3, #0]
 800025a:	f403 3380 	and.w	r3, r3, #65536	; 0x10000
 800025e:	2b00      	cmp	r3, #0
 8000260:	d0f9      	beq.n	8000256 <systick_wait_blocking+0x2e>
		/*clear the SYSTICK counter value*/
		SYSTICK->CVR = 0;
 8000262:	4b05      	ldr	r3, [pc, #20]	; (8000278 <systick_wait_blocking+0x50>)
 8000264:	2200      	movs	r2, #0
 8000266:	609a      	str	r2, [r3, #8]
	}

	return ret;
 8000268:	7bfb      	ldrb	r3, [r7, #15]
}
 800026a:	4618      	mov	r0, r3
 800026c:	3714      	adds	r7, #20
 800026e:	46bd      	mov	sp, r7
 8000270:	f85d 7b04 	ldr.w	r7, [sp], #4
 8000274:	4770      	bx	lr
 8000276:	bf00      	nop
 8000278:	e000e010 	.word	0xe000e010

0800027c <delay_ms>:
 * @param  : (ms) : number of Millie seconds
 * @return :
 *
 */
void delay_ms(uint32_t ms)
{
 800027c:	b580      	push	{r7, lr}
 800027e:	b084      	sub	sp, #16
 8000280:	af00      	add	r7, sp, #0
 8000282:	6078      	str	r0, [r7, #4]
	if(0 >= ms)
 8000284:	687b      	ldr	r3, [r7, #4]
 8000286:	2b00      	cmp	r3, #0
 8000288:	d00c      	beq.n	80002a4 <delay_ms+0x28>
	{
		/*Nothing*/
	}
	else
	{
		uint32_t delay_in_ms = ms;
 800028a:	687b      	ldr	r3, [r7, #4]
 800028c:	60fb      	str	r3, [r7, #12]
		while(delay_in_ms > 0)
 800028e:	e006      	b.n	800029e <delay_ms+0x22>
		{
			systick_wait_blocking(TICKS_PER_MS);
 8000290:	f643 607f 	movw	r0, #15999	; 0x3e7f
 8000294:	f7ff ffc8 	bl	8000228 <systick_wait_blocking>
			delay_in_ms--;
 8000298:	68fb      	ldr	r3, [r7, #12]
 800029a:	3b01      	subs	r3, #1
 800029c:	60fb      	str	r3, [r7, #12]
		while(delay_in_ms > 0)
 800029e:	68fb      	ldr	r3, [r7, #12]
 80002a0:	2b00      	cmp	r3, #0
 80002a2:	d1f5      	bne.n	8000290 <delay_ms+0x14>
		}
	}
}
 80002a4:	bf00      	nop
 80002a6:	3710      	adds	r7, #16
 80002a8:	46bd      	mov	sp, r7
 80002aa:	bd80      	pop	{r7, pc}

080002ac <HALL_RCC_OscConfig>:
 *      Author: Hamada
 */
#include "../../../Inc/MCAL/RCC/RCC.h"

Std_RetType_t HALL_RCC_OscConfig(RCC_OscInitTypedef *RCC_OscInitStruct)
{
 80002ac:	b480      	push	{r7}
 80002ae:	b085      	sub	sp, #20
 80002b0:	af00      	add	r7, sp, #0
 80002b2:	6078      	str	r0, [r7, #4]
	Std_RetType_t ret = RET_OK;
 80002b4:	2300      	movs	r3, #0
 80002b6:	73fb      	strb	r3, [r7, #15]
	if(NULL == RCC_OscInitStruct)
 80002b8:	687b      	ldr	r3, [r7, #4]
 80002ba:	2b00      	cmp	r3, #0
 80002bc:	d102      	bne.n	80002c4 <HALL_RCC_OscConfig+0x18>
	{
		ret = RET_ERROR;
 80002be:	2301      	movs	r3, #1
 80002c0:	73fb      	strb	r3, [r7, #15]
 80002c2:	e0e2      	b.n	800048a <HALL_RCC_OscConfig+0x1de>
	}
	else
	{
		if(RCC_OSCILLATORTYPE_HSE == RCC_OscInitStruct->OscillatorType)
 80002c4:	687b      	ldr	r3, [r7, #4]
 80002c6:	681b      	ldr	r3, [r3, #0]
 80002c8:	2b01      	cmp	r3, #1
 80002ca:	d11f      	bne.n	800030c <HALL_RCC_OscConfig+0x60>
		{
			/*HSE oscillator ON*/
			SET_BIT(RCC->CR,RCC_CR_HSEON_POS);
 80002cc:	4b72      	ldr	r3, [pc, #456]	; (8000498 <HALL_RCC_OscConfig+0x1ec>)
 80002ce:	681b      	ldr	r3, [r3, #0]
 80002d0:	4a71      	ldr	r2, [pc, #452]	; (8000498 <HALL_RCC_OscConfig+0x1ec>)
 80002d2:	f443 3380 	orr.w	r3, r3, #65536	; 0x10000
 80002d6:	6013      	str	r3, [r2, #0]
			/*wait till HSE ready*/
			while(! READ_BIT(RCC->CR,RCC_CR_HSE_READY_POS) );
 80002d8:	bf00      	nop
 80002da:	4b6f      	ldr	r3, [pc, #444]	; (8000498 <HALL_RCC_OscConfig+0x1ec>)
 80002dc:	681b      	ldr	r3, [r3, #0]
 80002de:	f403 3300 	and.w	r3, r3, #131072	; 0x20000
 80002e2:	2b00      	cmp	r3, #0
 80002e4:	d0f9      	beq.n	80002da <HALL_RCC_OscConfig+0x2e>
			/*select HSE oscillator as system clock*/
			SET_BIT(RCC->CFGR , RCC_CFGR_SW0_POS);
 80002e6:	4b6c      	ldr	r3, [pc, #432]	; (8000498 <HALL_RCC_OscConfig+0x1ec>)
 80002e8:	689b      	ldr	r3, [r3, #8]
 80002ea:	4a6b      	ldr	r2, [pc, #428]	; (8000498 <HALL_RCC_OscConfig+0x1ec>)
 80002ec:	f043 0301 	orr.w	r3, r3, #1
 80002f0:	6093      	str	r3, [r2, #8]
			CLEAR_BIT(RCC->CFGR,RCC_CFGR_SW1_POS);
 80002f2:	4b69      	ldr	r3, [pc, #420]	; (8000498 <HALL_RCC_OscConfig+0x1ec>)
 80002f4:	689b      	ldr	r3, [r3, #8]
 80002f6:	4a68      	ldr	r2, [pc, #416]	; (8000498 <HALL_RCC_OscConfig+0x1ec>)
 80002f8:	f023 0302 	bic.w	r3, r3, #2
 80002fc:	6093      	str	r3, [r2, #8]
			/*HSI OFF*/
			CLEAR_BIT(RCC->CR,RCC_CR_HSION_POS);
 80002fe:	4b66      	ldr	r3, [pc, #408]	; (8000498 <HALL_RCC_OscConfig+0x1ec>)
 8000300:	681b      	ldr	r3, [r3, #0]
 8000302:	4a65      	ldr	r2, [pc, #404]	; (8000498 <HALL_RCC_OscConfig+0x1ec>)
 8000304:	f023 0301 	bic.w	r3, r3, #1
 8000308:	6013      	str	r3, [r2, #0]
 800030a:	e0be      	b.n	800048a <HALL_RCC_OscConfig+0x1de>

		}
		else if(RCC_OSCILLATORTYPE_HSI == RCC_OscInitStruct->OscillatorType)
 800030c:	687b      	ldr	r3, [r7, #4]
 800030e:	681b      	ldr	r3, [r3, #0]
 8000310:	2b02      	cmp	r3, #2
 8000312:	d11f      	bne.n	8000354 <HALL_RCC_OscConfig+0xa8>
		{
			//HSI oscillator ON
			SET_BIT(RCC->CR,RCC_CR_HSION_POS);
 8000314:	4b60      	ldr	r3, [pc, #384]	; (8000498 <HALL_RCC_OscConfig+0x1ec>)
 8000316:	681b      	ldr	r3, [r3, #0]
 8000318:	4a5f      	ldr	r2, [pc, #380]	; (8000498 <HALL_RCC_OscConfig+0x1ec>)
 800031a:	f043 0301 	orr.w	r3, r3, #1
 800031e:	6013      	str	r3, [r2, #0]
			/*wait till HSI ready*/
			while(! READ_BIT(RCC->CR,RCC_CR_HSI_READY_POS) );
 8000320:	bf00      	nop
 8000322:	4b5d      	ldr	r3, [pc, #372]	; (8000498 <HALL_RCC_OscConfig+0x1ec>)
 8000324:	681b      	ldr	r3, [r3, #0]
 8000326:	f003 0302 	and.w	r3, r3, #2
 800032a:	2b00      	cmp	r3, #0
 800032c:	d0f9      	beq.n	8000322 <HALL_RCC_OscConfig+0x76>
			//HSI oscillator selected as system clock
			CLEAR_BIT(RCC->CFGR,RCC_CFGR_SW0_POS);
 800032e:	4b5a      	ldr	r3, [pc, #360]	; (8000498 <HALL_RCC_OscConfig+0x1ec>)
 8000330:	689b      	ldr	r3, [r3, #8]
 8000332:	4a59      	ldr	r2, [pc, #356]	; (8000498 <HALL_RCC_OscConfig+0x1ec>)
 8000334:	f023 0301 	bic.w	r3, r3, #1
 8000338:	6093      	str	r3, [r2, #8]
			CLEAR_BIT(RCC->CFGR,RCC_CFGR_SW1_POS);
 800033a:	4b57      	ldr	r3, [pc, #348]	; (8000498 <HALL_RCC_OscConfig+0x1ec>)
 800033c:	689b      	ldr	r3, [r3, #8]
 800033e:	4a56      	ldr	r2, [pc, #344]	; (8000498 <HALL_RCC_OscConfig+0x1ec>)
 8000340:	f023 0302 	bic.w	r3, r3, #2
 8000344:	6093      	str	r3, [r2, #8]

			/*HSE oscillator OFF*/
			CLEAR_BIT(RCC->CR,RCC_CR_HSEON_POS);
 8000346:	4b54      	ldr	r3, [pc, #336]	; (8000498 <HALL_RCC_OscConfig+0x1ec>)
 8000348:	681b      	ldr	r3, [r3, #0]
 800034a:	4a53      	ldr	r2, [pc, #332]	; (8000498 <HALL_RCC_OscConfig+0x1ec>)
 800034c:	f423 3380 	bic.w	r3, r3, #65536	; 0x10000
 8000350:	6013      	str	r3, [r2, #0]
 8000352:	e09a      	b.n	800048a <HALL_RCC_OscConfig+0x1de>
		}
		else if(RCC_OSCILLATORTYPE_PLL == RCC_OscInitStruct->OscillatorType)
 8000354:	687b      	ldr	r3, [r7, #4]
 8000356:	681b      	ldr	r3, [r3, #0]
 8000358:	2b04      	cmp	r3, #4
 800035a:	f040 8094 	bne.w	8000486 <HALL_RCC_OscConfig+0x1da>
		{
			/* 1. Enable HSI */
			SET_BIT(RCC->CR,RCC_CR_HSION_POS);
 800035e:	4b4e      	ldr	r3, [pc, #312]	; (8000498 <HALL_RCC_OscConfig+0x1ec>)
 8000360:	681b      	ldr	r3, [r3, #0]
 8000362:	4a4d      	ldr	r2, [pc, #308]	; (8000498 <HALL_RCC_OscConfig+0x1ec>)
 8000364:	f043 0301 	orr.w	r3, r3, #1
 8000368:	6013      	str	r3, [r2, #0]
			while(!READ_BIT(RCC->CR,RCC_CR_HSI_READY_POS));
 800036a:	bf00      	nop
 800036c:	4b4a      	ldr	r3, [pc, #296]	; (8000498 <HALL_RCC_OscConfig+0x1ec>)
 800036e:	681b      	ldr	r3, [r3, #0]
 8000370:	f003 0302 	and.w	r3, r3, #2
 8000374:	2b00      	cmp	r3, #0
 8000376:	d0f9      	beq.n	800036c <HALL_RCC_OscConfig+0xc0>

			/* 2. Switch SYSCLK to HSI */
			CLEAR_BIT(RCC->CFGR,RCC_CFGR_SW0_POS);
 8000378:	4b47      	ldr	r3, [pc, #284]	; (8000498 <HALL_RCC_OscConfig+0x1ec>)
 800037a:	689b      	ldr	r3, [r3, #8]
 800037c:	4a46      	ldr	r2, [pc, #280]	; (8000498 <HALL_RCC_OscConfig+0x1ec>)
 800037e:	f023 0301 	bic.w	r3, r3, #1
 8000382:	6093      	str	r3, [r2, #8]
			CLEAR_BIT(RCC->CFGR,RCC_CFGR_SW1_POS);
 8000384:	4b44      	ldr	r3, [pc, #272]	; (8000498 <HALL_RCC_OscConfig+0x1ec>)
 8000386:	689b      	ldr	r3, [r3, #8]
 8000388:	4a43      	ldr	r2, [pc, #268]	; (8000498 <HALL_RCC_OscConfig+0x1ec>)
 800038a:	f023 0302 	bic.w	r3, r3, #2
 800038e:	6093      	str	r3, [r2, #8]
			while((RCC->CFGR & (3<<2)) != (0<<2));
 8000390:	bf00      	nop
 8000392:	4b41      	ldr	r3, [pc, #260]	; (8000498 <HALL_RCC_OscConfig+0x1ec>)
 8000394:	689b      	ldr	r3, [r3, #8]
 8000396:	f003 030c 	and.w	r3, r3, #12
 800039a:	2b00      	cmp	r3, #0
 800039c:	d1f9      	bne.n	8000392 <HALL_RCC_OscConfig+0xe6>

			/* 3. Disable PLL */
			CLEAR_BIT(RCC->CR,RCC_CR_PLLON_POS);
 800039e:	4b3e      	ldr	r3, [pc, #248]	; (8000498 <HALL_RCC_OscConfig+0x1ec>)
 80003a0:	681b      	ldr	r3, [r3, #0]
 80003a2:	4a3d      	ldr	r2, [pc, #244]	; (8000498 <HALL_RCC_OscConfig+0x1ec>)
 80003a4:	f023 7380 	bic.w	r3, r3, #16777216	; 0x1000000
 80003a8:	6013      	str	r3, [r2, #0]
			while(READ_BIT(RCC->CR,RCC_CR_PLL_READY_POS));
 80003aa:	bf00      	nop
 80003ac:	4b3a      	ldr	r3, [pc, #232]	; (8000498 <HALL_RCC_OscConfig+0x1ec>)
 80003ae:	681b      	ldr	r3, [r3, #0]
 80003b0:	f003 7300 	and.w	r3, r3, #33554432	; 0x2000000
 80003b4:	2b00      	cmp	r3, #0
 80003b6:	d1f9      	bne.n	80003ac <HALL_RCC_OscConfig+0x100>

			/* 4. Select PLL source */
			if(RCC_PLL_SRC_HSE == RCC_OscInitStruct->PLL_Source_MUX)
 80003b8:	687b      	ldr	r3, [r7, #4]
 80003ba:	685b      	ldr	r3, [r3, #4]
 80003bc:	f5b3 0f80 	cmp.w	r3, #4194304	; 0x400000
 80003c0:	d113      	bne.n	80003ea <HALL_RCC_OscConfig+0x13e>
			{
				SET_BIT(RCC->CR,RCC_CR_HSEON_POS);
 80003c2:	4b35      	ldr	r3, [pc, #212]	; (8000498 <HALL_RCC_OscConfig+0x1ec>)
 80003c4:	681b      	ldr	r3, [r3, #0]
 80003c6:	4a34      	ldr	r2, [pc, #208]	; (8000498 <HALL_RCC_OscConfig+0x1ec>)
 80003c8:	f443 3380 	orr.w	r3, r3, #65536	; 0x10000
 80003cc:	6013      	str	r3, [r2, #0]
				while(! READ_BIT(RCC->CR,RCC_CR_HSE_READY_POS) );
 80003ce:	bf00      	nop
 80003d0:	4b31      	ldr	r3, [pc, #196]	; (8000498 <HALL_RCC_OscConfig+0x1ec>)
 80003d2:	681b      	ldr	r3, [r3, #0]
 80003d4:	f403 3300 	and.w	r3, r3, #131072	; 0x20000
 80003d8:	2b00      	cmp	r3, #0
 80003da:	d0f9      	beq.n	80003d0 <HALL_RCC_OscConfig+0x124>

				SET_BIT(RCC->PLLCFGR,RCC_PLL_SRC_CFGR_POS);
 80003dc:	4b2e      	ldr	r3, [pc, #184]	; (8000498 <HALL_RCC_OscConfig+0x1ec>)
 80003de:	685b      	ldr	r3, [r3, #4]
 80003e0:	4a2d      	ldr	r2, [pc, #180]	; (8000498 <HALL_RCC_OscConfig+0x1ec>)
 80003e2:	f443 0380 	orr.w	r3, r3, #4194304	; 0x400000
 80003e6:	6053      	str	r3, [r2, #4]
 80003e8:	e005      	b.n	80003f6 <HALL_RCC_OscConfig+0x14a>
			}
			else
			{
				CLEAR_BIT(RCC->PLLCFGR,RCC_PLL_SRC_CFGR_POS);
 80003ea:	4b2b      	ldr	r3, [pc, #172]	; (8000498 <HALL_RCC_OscConfig+0x1ec>)
 80003ec:	685b      	ldr	r3, [r3, #4]
 80003ee:	4a2a      	ldr	r2, [pc, #168]	; (8000498 <HALL_RCC_OscConfig+0x1ec>)
 80003f0:	f423 0380 	bic.w	r3, r3, #4194304	; 0x400000
 80003f4:	6053      	str	r3, [r2, #4]
			}

			/* 5. Configure PLL factors */
			MODIFY_REG(RCC->PLLCFGR ,RCC_PLLM_CFGR_MASK ,  RCC_OscInitStruct->PLLMClkDivider);
 80003f6:	4b28      	ldr	r3, [pc, #160]	; (8000498 <HALL_RCC_OscConfig+0x1ec>)
 80003f8:	685b      	ldr	r3, [r3, #4]
 80003fa:	f023 020f 	bic.w	r2, r3, #15
 80003fe:	687b      	ldr	r3, [r7, #4]
 8000400:	689b      	ldr	r3, [r3, #8]
 8000402:	4925      	ldr	r1, [pc, #148]	; (8000498 <HALL_RCC_OscConfig+0x1ec>)
 8000404:	4313      	orrs	r3, r2
 8000406:	604b      	str	r3, [r1, #4]
			MODIFY_REG(RCC->PLLCFGR ,RCC_PLLN_CFGR_MASK ,  RCC_OscInitStruct->PLLNMultiplicationFactor);
 8000408:	4b23      	ldr	r3, [pc, #140]	; (8000498 <HALL_RCC_OscConfig+0x1ec>)
 800040a:	685b      	ldr	r3, [r3, #4]
 800040c:	f423 7270 	bic.w	r2, r3, #960	; 0x3c0
 8000410:	687b      	ldr	r3, [r7, #4]
 8000412:	691b      	ldr	r3, [r3, #16]
 8000414:	4920      	ldr	r1, [pc, #128]	; (8000498 <HALL_RCC_OscConfig+0x1ec>)
 8000416:	4313      	orrs	r3, r2
 8000418:	604b      	str	r3, [r1, #4]
			MODIFY_REG(RCC->PLLCFGR ,RCC_PLLP_CFGR_MASK ,  RCC_OscInitStruct->PLLPClkDivider);
 800041a:	4b1f      	ldr	r3, [pc, #124]	; (8000498 <HALL_RCC_OscConfig+0x1ec>)
 800041c:	685b      	ldr	r3, [r3, #4]
 800041e:	f423 2270 	bic.w	r2, r3, #983040	; 0xf0000
 8000422:	687b      	ldr	r3, [r7, #4]
 8000424:	68db      	ldr	r3, [r3, #12]
 8000426:	491c      	ldr	r1, [pc, #112]	; (8000498 <HALL_RCC_OscConfig+0x1ec>)
 8000428:	4313      	orrs	r3, r2
 800042a:	604b      	str	r3, [r1, #4]

			/* 6. Configure Flash latency (84MHz) */
			#define FLASH_ACR_REG   (*(volatile unsigned int*)0x40023C00)

			/* Clear LATENCY bits [2:0] */
			FLASH_ACR_REG &= ~(0x7);
 800042c:	4b1b      	ldr	r3, [pc, #108]	; (800049c <HALL_RCC_OscConfig+0x1f0>)
 800042e:	681b      	ldr	r3, [r3, #0]
 8000430:	4a1a      	ldr	r2, [pc, #104]	; (800049c <HALL_RCC_OscConfig+0x1f0>)
 8000432:	f023 0307 	bic.w	r3, r3, #7
 8000436:	6013      	str	r3, [r2, #0]

			/* Set 2 wait states */
			FLASH_ACR_REG |= 0x2;
 8000438:	4b18      	ldr	r3, [pc, #96]	; (800049c <HALL_RCC_OscConfig+0x1f0>)
 800043a:	681b      	ldr	r3, [r3, #0]
 800043c:	4a17      	ldr	r2, [pc, #92]	; (800049c <HALL_RCC_OscConfig+0x1f0>)
 800043e:	f043 0302 	orr.w	r3, r3, #2
 8000442:	6013      	str	r3, [r2, #0]

			/* 7. Enable PLL */
			SET_BIT(RCC->CR,RCC_CR_PLLON_POS);
 8000444:	4b14      	ldr	r3, [pc, #80]	; (8000498 <HALL_RCC_OscConfig+0x1ec>)
 8000446:	681b      	ldr	r3, [r3, #0]
 8000448:	4a13      	ldr	r2, [pc, #76]	; (8000498 <HALL_RCC_OscConfig+0x1ec>)
 800044a:	f043 7380 	orr.w	r3, r3, #16777216	; 0x1000000
 800044e:	6013      	str	r3, [r2, #0]
			while(!READ_BIT(RCC->CR,RCC_CR_PLL_READY_POS));
 8000450:	bf00      	nop
 8000452:	4b11      	ldr	r3, [pc, #68]	; (8000498 <HALL_RCC_OscConfig+0x1ec>)
 8000454:	681b      	ldr	r3, [r3, #0]
 8000456:	f003 7300 	and.w	r3, r3, #33554432	; 0x2000000
 800045a:	2b00      	cmp	r3, #0
 800045c:	d0f9      	beq.n	8000452 <HALL_RCC_OscConfig+0x1a6>

			/* 8. Select PLL as SYSCLK */
			CLEAR_BIT(RCC->CFGR,RCC_CFGR_SW0_POS);
 800045e:	4b0e      	ldr	r3, [pc, #56]	; (8000498 <HALL_RCC_OscConfig+0x1ec>)
 8000460:	689b      	ldr	r3, [r3, #8]
 8000462:	4a0d      	ldr	r2, [pc, #52]	; (8000498 <HALL_RCC_OscConfig+0x1ec>)
 8000464:	f023 0301 	bic.w	r3, r3, #1
 8000468:	6093      	str	r3, [r2, #8]
			SET_BIT(RCC->CFGR,RCC_CFGR_SW1_POS);
 800046a:	4b0b      	ldr	r3, [pc, #44]	; (8000498 <HALL_RCC_OscConfig+0x1ec>)
 800046c:	689b      	ldr	r3, [r3, #8]
 800046e:	4a0a      	ldr	r2, [pc, #40]	; (8000498 <HALL_RCC_OscConfig+0x1ec>)
 8000470:	f043 0302 	orr.w	r3, r3, #2
 8000474:	6093      	str	r3, [r2, #8]
			while((RCC->CFGR & (3<<2)) != (2<<2));
 8000476:	bf00      	nop
 8000478:	4b07      	ldr	r3, [pc, #28]	; (8000498 <HALL_RCC_OscConfig+0x1ec>)
 800047a:	689b      	ldr	r3, [r3, #8]
 800047c:	f003 030c 	and.w	r3, r3, #12
 8000480:	2b08      	cmp	r3, #8
 8000482:	d1f9      	bne.n	8000478 <HALL_RCC_OscConfig+0x1cc>
 8000484:	e001      	b.n	800048a <HALL_RCC_OscConfig+0x1de>

		}
		else
		{
			/*Nothing*/
			ret = RET_ERROR;
 8000486:	2301      	movs	r3, #1
 8000488:	73fb      	strb	r3, [r7, #15]
		}
	}
	return ret;
 800048a:	7bfb      	ldrb	r3, [r7, #15]
}
 800048c:	4618      	mov	r0, r3
 800048e:	3714      	adds	r7, #20
 8000490:	46bd      	mov	sp, r7
 8000492:	f85d 7b04 	ldr.w	r7, [sp], #4
 8000496:	4770      	bx	lr
 8000498:	40023800 	.word	0x40023800
 800049c:	40023c00 	.word	0x40023c00

080004a0 <HALL_RCC_ClockConfig>:

Std_RetType_t HALL_RCC_ClockConfig(RCC_ClkInitTypedef *RCC_ClockInitStruct)
{
 80004a0:	b480      	push	{r7}
 80004a2:	b085      	sub	sp, #20
 80004a4:	af00      	add	r7, sp, #0
 80004a6:	6078      	str	r0, [r7, #4]
	Std_RetType_t ret = RET_OK;
 80004a8:	2300      	movs	r3, #0
 80004aa:	73fb      	strb	r3, [r7, #15]
	if(NULL == RCC_ClockInitStruct)
 80004ac:	687b      	ldr	r3, [r7, #4]
 80004ae:	2b00      	cmp	r3, #0
 80004b0:	d102      	bne.n	80004b8 <HALL_RCC_ClockConfig+0x18>
	{
		ret = RET_ERROR;
 80004b2:	2301      	movs	r3, #1
 80004b4:	73fb      	strb	r3, [r7, #15]
 80004b6:	e01a      	b.n	80004ee <HALL_RCC_ClockConfig+0x4e>
	}
	else
	{
		MODIFY_REG(RCC->CFGR ,RCC_CFGR_HPRE_MASK,  RCC_ClockInitStruct->AHBClkDivider);
 80004b8:	4b10      	ldr	r3, [pc, #64]	; (80004fc <HALL_RCC_ClockConfig+0x5c>)
 80004ba:	689b      	ldr	r3, [r3, #8]
 80004bc:	f023 02f0 	bic.w	r2, r3, #240	; 0xf0
 80004c0:	687b      	ldr	r3, [r7, #4]
 80004c2:	681b      	ldr	r3, [r3, #0]
 80004c4:	490d      	ldr	r1, [pc, #52]	; (80004fc <HALL_RCC_ClockConfig+0x5c>)
 80004c6:	4313      	orrs	r3, r2
 80004c8:	608b      	str	r3, [r1, #8]
		MODIFY_REG(RCC->CFGR ,RCC_CFGR_PPRE1_MASK, RCC_ClockInitStruct->APB1ClkDivider);
 80004ca:	4b0c      	ldr	r3, [pc, #48]	; (80004fc <HALL_RCC_ClockConfig+0x5c>)
 80004cc:	689b      	ldr	r3, [r3, #8]
 80004ce:	f423 5270 	bic.w	r2, r3, #15360	; 0x3c00
 80004d2:	687b      	ldr	r3, [r7, #4]
 80004d4:	685b      	ldr	r3, [r3, #4]
 80004d6:	4909      	ldr	r1, [pc, #36]	; (80004fc <HALL_RCC_ClockConfig+0x5c>)
 80004d8:	4313      	orrs	r3, r2
 80004da:	608b      	str	r3, [r1, #8]
		MODIFY_REG(RCC->CFGR ,RCC_CFGR_PPRE2_MASK, RCC_ClockInitStruct->APB2ClkDivider);
 80004dc:	4b07      	ldr	r3, [pc, #28]	; (80004fc <HALL_RCC_ClockConfig+0x5c>)
 80004de:	689b      	ldr	r3, [r3, #8]
 80004e0:	f423 32f0 	bic.w	r2, r3, #122880	; 0x1e000
 80004e4:	687b      	ldr	r3, [r7, #4]
 80004e6:	689b      	ldr	r3, [r3, #8]
 80004e8:	4904      	ldr	r1, [pc, #16]	; (80004fc <HALL_RCC_ClockConfig+0x5c>)
 80004ea:	4313      	orrs	r3, r2
 80004ec:	608b      	str	r3, [r1, #8]

	}
	return ret;
 80004ee:	7bfb      	ldrb	r3, [r7, #15]
}
 80004f0:	4618      	mov	r0, r3
 80004f2:	3714      	adds	r7, #20
 80004f4:	46bd      	mov	sp, r7
 80004f6:	f85d 7b04 	ldr.w	r7, [sp], #4
 80004fa:	4770      	bx	lr
 80004fc:	40023800 	.word	0x40023800

08000500 <gpio_pin_init>:
 * @return :
 * 			(RET_OK) : The function done successfully
 * 			(RET_ERROR) : The function has a problem to perform this action
 */
Std_RetType_t gpio_pin_init(const PinConfig_t* pinConfig)
{
 8000500:	b480      	push	{r7}
 8000502:	b085      	sub	sp, #20
 8000504:	af00      	add	r7, sp, #0
 8000506:	6078      	str	r0, [r7, #4]
	Std_RetType_t ret = RET_OK;
 8000508:	2300      	movs	r3, #0
 800050a:	73fb      	strb	r3, [r7, #15]
	if(NULL == pinConfig)
 800050c:	687b      	ldr	r3, [r7, #4]
 800050e:	2b00      	cmp	r3, #0
 8000510:	d102      	bne.n	8000518 <gpio_pin_init+0x18>
	{
		ret = RET_ERROR;
 8000512:	2301      	movs	r3, #1
 8000514:	73fb      	strb	r3, [r7, #15]
 8000516:	e108      	b.n	800072a <gpio_pin_init+0x22a>
	}
	else
	{
		/* Select gpio pin mode*/
		/*clear the mode bits*/
		(GPIO_PORT[pinConfig->port]->MODER) &=~ (MODER_MASK << (pinConfig->pin*MODER_PIN_ACCESS));
 8000518:	687b      	ldr	r3, [r7, #4]
 800051a:	785b      	ldrb	r3, [r3, #1]
 800051c:	461a      	mov	r2, r3
 800051e:	4b86      	ldr	r3, [pc, #536]	; (8000738 <gpio_pin_init+0x238>)
 8000520:	f853 3022 	ldr.w	r3, [r3, r2, lsl #2]
 8000524:	681a      	ldr	r2, [r3, #0]
 8000526:	687b      	ldr	r3, [r7, #4]
 8000528:	781b      	ldrb	r3, [r3, #0]
 800052a:	005b      	lsls	r3, r3, #1
 800052c:	2103      	movs	r1, #3
 800052e:	fa01 f303 	lsl.w	r3, r1, r3
 8000532:	43db      	mvns	r3, r3
 8000534:	4619      	mov	r1, r3
 8000536:	687b      	ldr	r3, [r7, #4]
 8000538:	785b      	ldrb	r3, [r3, #1]
 800053a:	4618      	mov	r0, r3
 800053c:	4b7e      	ldr	r3, [pc, #504]	; (8000738 <gpio_pin_init+0x238>)
 800053e:	f853 3020 	ldr.w	r3, [r3, r0, lsl #2]
 8000542:	400a      	ands	r2, r1
 8000544:	601a      	str	r2, [r3, #0]
		/*set the mode bits*/
		(GPIO_PORT[pinConfig->port]->MODER) |=  ((pinConfig->mode) << (pinConfig->pin*MODER_PIN_ACCESS));
 8000546:	687b      	ldr	r3, [r7, #4]
 8000548:	785b      	ldrb	r3, [r3, #1]
 800054a:	461a      	mov	r2, r3
 800054c:	4b7a      	ldr	r3, [pc, #488]	; (8000738 <gpio_pin_init+0x238>)
 800054e:	f853 3022 	ldr.w	r3, [r3, r2, lsl #2]
 8000552:	681a      	ldr	r2, [r3, #0]
 8000554:	687b      	ldr	r3, [r7, #4]
 8000556:	789b      	ldrb	r3, [r3, #2]
 8000558:	4619      	mov	r1, r3
 800055a:	687b      	ldr	r3, [r7, #4]
 800055c:	781b      	ldrb	r3, [r3, #0]
 800055e:	005b      	lsls	r3, r3, #1
 8000560:	fa01 f303 	lsl.w	r3, r1, r3
 8000564:	4619      	mov	r1, r3
 8000566:	687b      	ldr	r3, [r7, #4]
 8000568:	785b      	ldrb	r3, [r3, #1]
 800056a:	4618      	mov	r0, r3
 800056c:	4b72      	ldr	r3, [pc, #456]	; (8000738 <gpio_pin_init+0x238>)
 800056e:	f853 3020 	ldr.w	r3, [r3, r0, lsl #2]
 8000572:	430a      	orrs	r2, r1
 8000574:	601a      	str	r2, [r3, #0]


		/* Select gpio pull state */
		/*clear the PUPDR bits*/
		(GPIO_PORT[pinConfig->port]->PUPDR) &=~ (PUPDR_MASK << (pinConfig->pin*PUPDR_PIN_ACCESS));
 8000576:	687b      	ldr	r3, [r7, #4]
 8000578:	785b      	ldrb	r3, [r3, #1]
 800057a:	461a      	mov	r2, r3
 800057c:	4b6e      	ldr	r3, [pc, #440]	; (8000738 <gpio_pin_init+0x238>)
 800057e:	f853 3022 	ldr.w	r3, [r3, r2, lsl #2]
 8000582:	68da      	ldr	r2, [r3, #12]
 8000584:	687b      	ldr	r3, [r7, #4]
 8000586:	781b      	ldrb	r3, [r3, #0]
 8000588:	005b      	lsls	r3, r3, #1
 800058a:	2103      	movs	r1, #3
 800058c:	fa01 f303 	lsl.w	r3, r1, r3
 8000590:	43db      	mvns	r3, r3
 8000592:	4619      	mov	r1, r3
 8000594:	687b      	ldr	r3, [r7, #4]
 8000596:	785b      	ldrb	r3, [r3, #1]
 8000598:	4618      	mov	r0, r3
 800059a:	4b67      	ldr	r3, [pc, #412]	; (8000738 <gpio_pin_init+0x238>)
 800059c:	f853 3020 	ldr.w	r3, [r3, r0, lsl #2]
 80005a0:	400a      	ands	r2, r1
 80005a2:	60da      	str	r2, [r3, #12]
		/*set the PUPDR bits*/
		(GPIO_PORT[pinConfig->port]->PUPDR) |=  ((pinConfig->pullType) << (pinConfig->pin*PUPDR_PIN_ACCESS));
 80005a4:	687b      	ldr	r3, [r7, #4]
 80005a6:	785b      	ldrb	r3, [r3, #1]
 80005a8:	461a      	mov	r2, r3
 80005aa:	4b63      	ldr	r3, [pc, #396]	; (8000738 <gpio_pin_init+0x238>)
 80005ac:	f853 3022 	ldr.w	r3, [r3, r2, lsl #2]
 80005b0:	68da      	ldr	r2, [r3, #12]
 80005b2:	687b      	ldr	r3, [r7, #4]
 80005b4:	795b      	ldrb	r3, [r3, #5]
 80005b6:	4619      	mov	r1, r3
 80005b8:	687b      	ldr	r3, [r7, #4]
 80005ba:	781b      	ldrb	r3, [r3, #0]
 80005bc:	005b      	lsls	r3, r3, #1
 80005be:	fa01 f303 	lsl.w	r3, r1, r3
 80005c2:	4619      	mov	r1, r3
 80005c4:	687b      	ldr	r3, [r7, #4]
 80005c6:	785b      	ldrb	r3, [r3, #1]
 80005c8:	4618      	mov	r0, r3
 80005ca:	4b5b      	ldr	r3, [pc, #364]	; (8000738 <gpio_pin_init+0x238>)
 80005cc:	f853 3020 	ldr.w	r3, [r3, r0, lsl #2]
 80005d0:	430a      	orrs	r2, r1
 80005d2:	60da      	str	r2, [r3, #12]

		/*select output type & output speed in case of output or alternate function*/
		if(OUTPUT == pinConfig->mode || ALTERNATE_FUNCTION == pinConfig->mode)
 80005d4:	687b      	ldr	r3, [r7, #4]
 80005d6:	789b      	ldrb	r3, [r3, #2]
 80005d8:	2b01      	cmp	r3, #1
 80005da:	d004      	beq.n	80005e6 <gpio_pin_init+0xe6>
 80005dc:	687b      	ldr	r3, [r7, #4]
 80005de:	789b      	ldrb	r3, [r3, #2]
 80005e0:	2b02      	cmp	r3, #2
 80005e2:	f040 80a2 	bne.w	800072a <gpio_pin_init+0x22a>
		{
			/*select output type {push pull , open drain}*/
			/*clear the OTYPER bits*/
			(GPIO_PORT[pinConfig->port]->OTYPER) &=~ (OTYPER_MASK << (pinConfig->pin));
 80005e6:	687b      	ldr	r3, [r7, #4]
 80005e8:	785b      	ldrb	r3, [r3, #1]
 80005ea:	461a      	mov	r2, r3
 80005ec:	4b52      	ldr	r3, [pc, #328]	; (8000738 <gpio_pin_init+0x238>)
 80005ee:	f853 3022 	ldr.w	r3, [r3, r2, lsl #2]
 80005f2:	685a      	ldr	r2, [r3, #4]
 80005f4:	687b      	ldr	r3, [r7, #4]
 80005f6:	781b      	ldrb	r3, [r3, #0]
 80005f8:	4619      	mov	r1, r3
 80005fa:	2301      	movs	r3, #1
 80005fc:	408b      	lsls	r3, r1
 80005fe:	43db      	mvns	r3, r3
 8000600:	4619      	mov	r1, r3
 8000602:	687b      	ldr	r3, [r7, #4]
 8000604:	785b      	ldrb	r3, [r3, #1]
 8000606:	4618      	mov	r0, r3
 8000608:	4b4b      	ldr	r3, [pc, #300]	; (8000738 <gpio_pin_init+0x238>)
 800060a:	f853 3020 	ldr.w	r3, [r3, r0, lsl #2]
 800060e:	400a      	ands	r2, r1
 8000610:	605a      	str	r2, [r3, #4]
			/*set the OTYPER bits*/
			(GPIO_PORT[pinConfig->port]->OTYPER) |=  (pinConfig->outType << (pinConfig->pin));
 8000612:	687b      	ldr	r3, [r7, #4]
 8000614:	785b      	ldrb	r3, [r3, #1]
 8000616:	461a      	mov	r2, r3
 8000618:	4b47      	ldr	r3, [pc, #284]	; (8000738 <gpio_pin_init+0x238>)
 800061a:	f853 3022 	ldr.w	r3, [r3, r2, lsl #2]
 800061e:	685a      	ldr	r2, [r3, #4]
 8000620:	687b      	ldr	r3, [r7, #4]
 8000622:	78db      	ldrb	r3, [r3, #3]
 8000624:	4619      	mov	r1, r3
 8000626:	687b      	ldr	r3, [r7, #4]
 8000628:	781b      	ldrb	r3, [r3, #0]
 800062a:	fa01 f303 	lsl.w	r3, r1, r3
 800062e:	4619      	mov	r1, r3
 8000630:	687b      	ldr	r3, [r7, #4]
 8000632:	785b      	ldrb	r3, [r3, #1]
 8000634:	4618      	mov	r0, r3
 8000636:	4b40      	ldr	r3, [pc, #256]	; (8000738 <gpio_pin_init+0x238>)
 8000638:	f853 3020 	ldr.w	r3, [r3, r0, lsl #2]
 800063c:	430a      	orrs	r2, r1
 800063e:	605a      	str	r2, [r3, #4]

			/*select output speed {low , medium , high , very high}*/
			/*clear the OSPEEDR bits*/
			(GPIO_PORT[pinConfig->port]->OSPEEDR) &=~ (OSPEEDR_MASK << (pinConfig->pin*OSPEEDR_PIN_ACCESS));
 8000640:	687b      	ldr	r3, [r7, #4]
 8000642:	785b      	ldrb	r3, [r3, #1]
 8000644:	461a      	mov	r2, r3
 8000646:	4b3c      	ldr	r3, [pc, #240]	; (8000738 <gpio_pin_init+0x238>)
 8000648:	f853 3022 	ldr.w	r3, [r3, r2, lsl #2]
 800064c:	689a      	ldr	r2, [r3, #8]
 800064e:	687b      	ldr	r3, [r7, #4]
 8000650:	781b      	ldrb	r3, [r3, #0]
 8000652:	005b      	lsls	r3, r3, #1
 8000654:	2103      	movs	r1, #3
 8000656:	fa01 f303 	lsl.w	r3, r1, r3
 800065a:	43db      	mvns	r3, r3
 800065c:	4619      	mov	r1, r3
 800065e:	687b      	ldr	r3, [r7, #4]
 8000660:	785b      	ldrb	r3, [r3, #1]
 8000662:	4618      	mov	r0, r3
 8000664:	4b34      	ldr	r3, [pc, #208]	; (8000738 <gpio_pin_init+0x238>)
 8000666:	f853 3020 	ldr.w	r3, [r3, r0, lsl #2]
 800066a:	400a      	ands	r2, r1
 800066c:	609a      	str	r2, [r3, #8]
			/*set the OSPEEDR bits*/
			(GPIO_PORT[pinConfig->port]->OSPEEDR) |= (pinConfig->speed << (pinConfig->pin*OSPEEDR_PIN_ACCESS));
 800066e:	687b      	ldr	r3, [r7, #4]
 8000670:	785b      	ldrb	r3, [r3, #1]
 8000672:	461a      	mov	r2, r3
 8000674:	4b30      	ldr	r3, [pc, #192]	; (8000738 <gpio_pin_init+0x238>)
 8000676:	f853 3022 	ldr.w	r3, [r3, r2, lsl #2]
 800067a:	689a      	ldr	r2, [r3, #8]
 800067c:	687b      	ldr	r3, [r7, #4]
 800067e:	791b      	ldrb	r3, [r3, #4]
 8000680:	4619      	mov	r1, r3
 8000682:	687b      	ldr	r3, [r7, #4]
 8000684:	781b      	ldrb	r3, [r3, #0]
 8000686:	005b      	lsls	r3, r3, #1
 8000688:	fa01 f303 	lsl.w	r3, r1, r3
 800068c:	4619      	mov	r1, r3
 800068e:	687b      	ldr	r3, [r7, #4]
 8000690:	785b      	ldrb	r3, [r3, #1]
 8000692:	4618      	mov	r0, r3
 8000694:	4b28      	ldr	r3, [pc, #160]	; (8000738 <gpio_pin_init+0x238>)
 8000696:	f853 3020 	ldr.w	r3, [r3, r0, lsl #2]
 800069a:	430a      	orrs	r2, r1
 800069c:	609a      	str	r2, [r3, #8]

			if(ALTERNATE_FUNCTION == pinConfig->mode)
 800069e:	687b      	ldr	r3, [r7, #4]
 80006a0:	789b      	ldrb	r3, [r3, #2]
 80006a2:	2b02      	cmp	r3, #2
 80006a4:	d141      	bne.n	800072a <gpio_pin_init+0x22a>
			{
				/*select the pin alternate function*/
				uint8_t l_reg_num = pinConfig->pin / AFR_PIN_SHIFTING;   /*calculate the register number (0 or 1)*/
 80006a6:	687b      	ldr	r3, [r7, #4]
 80006a8:	781b      	ldrb	r3, [r3, #0]
 80006aa:	08db      	lsrs	r3, r3, #3
 80006ac:	73bb      	strb	r3, [r7, #14]
				uint8_t l_bit_num = pinConfig->pin % AFR_PIN_SHIFTING;   /*calculate the bit number */
 80006ae:	687b      	ldr	r3, [r7, #4]
 80006b0:	781b      	ldrb	r3, [r3, #0]
 80006b2:	f003 0307 	and.w	r3, r3, #7
 80006b6:	737b      	strb	r3, [r7, #13]
				/*clear the AFR bits*/
				(GPIO_PORT[pinConfig->port]->AFR[l_reg_num]) &=~(AFR_MASK << (l_bit_num *AFR_PIN_ACCESS));
 80006b8:	687b      	ldr	r3, [r7, #4]
 80006ba:	785b      	ldrb	r3, [r3, #1]
 80006bc:	461a      	mov	r2, r3
 80006be:	4b1e      	ldr	r3, [pc, #120]	; (8000738 <gpio_pin_init+0x238>)
 80006c0:	f853 3022 	ldr.w	r3, [r3, r2, lsl #2]
 80006c4:	7bba      	ldrb	r2, [r7, #14]
 80006c6:	3208      	adds	r2, #8
 80006c8:	f853 1022 	ldr.w	r1, [r3, r2, lsl #2]
 80006cc:	7b7b      	ldrb	r3, [r7, #13]
 80006ce:	009b      	lsls	r3, r3, #2
 80006d0:	220f      	movs	r2, #15
 80006d2:	fa02 f303 	lsl.w	r3, r2, r3
 80006d6:	43db      	mvns	r3, r3
 80006d8:	4618      	mov	r0, r3
 80006da:	687b      	ldr	r3, [r7, #4]
 80006dc:	785b      	ldrb	r3, [r3, #1]
 80006de:	461a      	mov	r2, r3
 80006e0:	4b15      	ldr	r3, [pc, #84]	; (8000738 <gpio_pin_init+0x238>)
 80006e2:	f853 3022 	ldr.w	r3, [r3, r2, lsl #2]
 80006e6:	7bba      	ldrb	r2, [r7, #14]
 80006e8:	4001      	ands	r1, r0
 80006ea:	3208      	adds	r2, #8
 80006ec:	f843 1022 	str.w	r1, [r3, r2, lsl #2]
				/*set the AFR bits*/
				(GPIO_PORT[pinConfig->port]->AFR[l_reg_num]) |= ((pinConfig->alternateFunction) << (l_bit_num *AFR_PIN_ACCESS));
 80006f0:	687b      	ldr	r3, [r7, #4]
 80006f2:	785b      	ldrb	r3, [r3, #1]
 80006f4:	461a      	mov	r2, r3
 80006f6:	4b10      	ldr	r3, [pc, #64]	; (8000738 <gpio_pin_init+0x238>)
 80006f8:	f853 3022 	ldr.w	r3, [r3, r2, lsl #2]
 80006fc:	7bba      	ldrb	r2, [r7, #14]
 80006fe:	3208      	adds	r2, #8
 8000700:	f853 1022 	ldr.w	r1, [r3, r2, lsl #2]
 8000704:	687b      	ldr	r3, [r7, #4]
 8000706:	799b      	ldrb	r3, [r3, #6]
 8000708:	461a      	mov	r2, r3
 800070a:	7b7b      	ldrb	r3, [r7, #13]
 800070c:	009b      	lsls	r3, r3, #2
 800070e:	fa02 f303 	lsl.w	r3, r2, r3
 8000712:	4618      	mov	r0, r3
 8000714:	687b      	ldr	r3, [r7, #4]
 8000716:	785b      	ldrb	r3, [r3, #1]
 8000718:	461a      	mov	r2, r3
 800071a:	4b07      	ldr	r3, [pc, #28]	; (8000738 <gpio_pin_init+0x238>)
 800071c:	f853 3022 	ldr.w	r3, [r3, r2, lsl #2]
 8000720:	7bba      	ldrb	r2, [r7, #14]
 8000722:	4301      	orrs	r1, r0
 8000724:	3208      	adds	r2, #8
 8000726:	f843 1022 	str.w	r1, [r3, r2, lsl #2]
			}
		}

	}
	return ret;
 800072a:	7bfb      	ldrb	r3, [r7, #15]
}
 800072c:	4618      	mov	r0, r3
 800072e:	3714      	adds	r7, #20
 8000730:	46bd      	mov	sp, r7
 8000732:	f85d 7b04 	ldr.w	r7, [sp], #4
 8000736:	4770      	bx	lr
 8000738:	20000000 	.word	0x20000000

0800073c <gpio_toggle_pin_value>:
 * @return :
 * 			(RET_OK) : The function done successfully
 * 			(RET_ERROR) : The function has a problem to perform this action
 */
Std_RetType_t gpio_toggle_pin_value(Port_t port ,Pin_t pin)
{
 800073c:	b480      	push	{r7}
 800073e:	b085      	sub	sp, #20
 8000740:	af00      	add	r7, sp, #0
 8000742:	4603      	mov	r3, r0
 8000744:	460a      	mov	r2, r1
 8000746:	71fb      	strb	r3, [r7, #7]
 8000748:	4613      	mov	r3, r2
 800074a:	71bb      	strb	r3, [r7, #6]
	Std_RetType_t ret = RET_OK;
 800074c:	2300      	movs	r3, #0
 800074e:	73fb      	strb	r3, [r7, #15]
	if((PORTH < port) | (PIN15 < pin))
 8000750:	79fb      	ldrb	r3, [r7, #7]
 8000752:	2b05      	cmp	r3, #5
 8000754:	bf8c      	ite	hi
 8000756:	2301      	movhi	r3, #1
 8000758:	2300      	movls	r3, #0
 800075a:	b2da      	uxtb	r2, r3
 800075c:	79bb      	ldrb	r3, [r7, #6]
 800075e:	2b0f      	cmp	r3, #15
 8000760:	bf8c      	ite	hi
 8000762:	2301      	movhi	r3, #1
 8000764:	2300      	movls	r3, #0
 8000766:	b2db      	uxtb	r3, r3
 8000768:	4313      	orrs	r3, r2
 800076a:	b2db      	uxtb	r3, r3
 800076c:	2b00      	cmp	r3, #0
 800076e:	d002      	beq.n	8000776 <gpio_toggle_pin_value+0x3a>
	{
		ret = RET_ERROR;
 8000770:	2301      	movs	r3, #1
 8000772:	73fb      	strb	r3, [r7, #15]
 8000774:	e00f      	b.n	8000796 <gpio_toggle_pin_value+0x5a>
	}
	else
	{
		GPIO_PORT[port]->ODR ^= (1 << pin);
 8000776:	79fb      	ldrb	r3, [r7, #7]
 8000778:	4a0a      	ldr	r2, [pc, #40]	; (80007a4 <gpio_toggle_pin_value+0x68>)
 800077a:	f852 3023 	ldr.w	r3, [r2, r3, lsl #2]
 800077e:	695a      	ldr	r2, [r3, #20]
 8000780:	79bb      	ldrb	r3, [r7, #6]
 8000782:	2101      	movs	r1, #1
 8000784:	fa01 f303 	lsl.w	r3, r1, r3
 8000788:	4618      	mov	r0, r3
 800078a:	79fb      	ldrb	r3, [r7, #7]
 800078c:	4905      	ldr	r1, [pc, #20]	; (80007a4 <gpio_toggle_pin_value+0x68>)
 800078e:	f851 3023 	ldr.w	r3, [r1, r3, lsl #2]
 8000792:	4042      	eors	r2, r0
 8000794:	615a      	str	r2, [r3, #20]
	}
	return ret;
 8000796:	7bfb      	ldrb	r3, [r7, #15]
}
 8000798:	4618      	mov	r0, r3
 800079a:	3714      	adds	r7, #20
 800079c:	46bd      	mov	sp, r7
 800079e:	f85d 7b04 	ldr.w	r7, [sp], #4
 80007a2:	4770      	bx	lr
 80007a4:	20000000 	.word	0x20000000

080007a8 <main>:


PinConfig_t portc_13 = {.port = PORTC , .pin = PIN13 , .mode = OUTPUT , .outType = PUSH_BULL , .speed = MEDUIM_SPEED , .pullType = NO_PULL};

int main(void)
{
 80007a8:	b580      	push	{r7, lr}
 80007aa:	af00      	add	r7, sp, #0
	SystemClock_Config();
 80007ac:	f000 f818 	bl	80007e0 <SystemClock_Config>
	systick_init();
 80007b0:	f7ff fd10 	bl	80001d4 <systick_init>

	RCC_GPIOC_CLK_ENABLE();
 80007b4:	4b08      	ldr	r3, [pc, #32]	; (80007d8 <main+0x30>)
 80007b6:	6b1b      	ldr	r3, [r3, #48]	; 0x30
 80007b8:	4a07      	ldr	r2, [pc, #28]	; (80007d8 <main+0x30>)
 80007ba:	f043 0304 	orr.w	r3, r3, #4
 80007be:	6313      	str	r3, [r2, #48]	; 0x30
	gpio_pin_init(&portc_13);
 80007c0:	4806      	ldr	r0, [pc, #24]	; (80007dc <main+0x34>)
 80007c2:	f7ff fe9d 	bl	8000500 <gpio_pin_init>

    /* Loop forever */
	while(1)
	{

		gpio_toggle_pin_value(PORTC, PIN13);
 80007c6:	210d      	movs	r1, #13
 80007c8:	2002      	movs	r0, #2
 80007ca:	f7ff ffb7 	bl	800073c <gpio_toggle_pin_value>
		delay_ms(250);
 80007ce:	20fa      	movs	r0, #250	; 0xfa
 80007d0:	f7ff fd54 	bl	800027c <delay_ms>
		gpio_toggle_pin_value(PORTC, PIN13);
 80007d4:	e7f7      	b.n	80007c6 <main+0x1e>
 80007d6:	bf00      	nop
 80007d8:	40023800 	.word	0x40023800
 80007dc:	20000018 	.word	0x20000018

080007e0 <SystemClock_Config>:
}



Std_RetType_t SystemClock_Config(void)
{
 80007e0:	b580      	push	{r7, lr}
 80007e2:	b08a      	sub	sp, #40	; 0x28
 80007e4:	af00      	add	r7, sp, #0

	Std_RetType_t ret = RET_OK;
 80007e6:	2300      	movs	r3, #0
 80007e8:	f887 3027 	strb.w	r3, [r7, #39]	; 0x27
	RCC_OscInitTypedef RCC_OscInit ={0};
 80007ec:	f107 0310 	add.w	r3, r7, #16
 80007f0:	2200      	movs	r2, #0
 80007f2:	601a      	str	r2, [r3, #0]
 80007f4:	605a      	str	r2, [r3, #4]
 80007f6:	609a      	str	r2, [r3, #8]
 80007f8:	60da      	str	r2, [r3, #12]
 80007fa:	611a      	str	r2, [r3, #16]
	RCC_ClkInitTypedef RCC_ClkInit ={0};
 80007fc:	1d3b      	adds	r3, r7, #4
 80007fe:	2200      	movs	r2, #0
 8000800:	601a      	str	r2, [r3, #0]
 8000802:	605a      	str	r2, [r3, #4]
 8000804:	609a      	str	r2, [r3, #8]

	RCC_OscInit.OscillatorType = RCC_OSCILLATORTYPE_HSI;
 8000806:	2302      	movs	r3, #2
 8000808:	613b      	str	r3, [r7, #16]
//	RCC_OscInit.PLL_Source_MUX = RCC_PLL_SRC_HSE;
//	RCC_OscInit.PLLMClkDivider = RCC_PLLCFGR_PLLM_DIV8;
//	RCC_OscInit.PLLPClkDivider = RCC_PLLCFGR_PLLP_DIV2;
//	RCC_OscInit.PLLNMultiplicationFactor = RCC_PLLCFGR_PLLN_TIMES_84;

	ret = HALL_RCC_OscConfig(&RCC_OscInit);
 800080a:	f107 0310 	add.w	r3, r7, #16
 800080e:	4618      	mov	r0, r3
 8000810:	f7ff fd4c 	bl	80002ac <HALL_RCC_OscConfig>
 8000814:	4603      	mov	r3, r0
 8000816:	f887 3027 	strb.w	r3, [r7, #39]	; 0x27

	RCC_ClkInit.AHBClkDivider  =RCC_SYSCLK_AHB_DIV1;
 800081a:	2300      	movs	r3, #0
 800081c:	607b      	str	r3, [r7, #4]
	RCC_ClkInit.APB1ClkDivider =RCC_HCLK_APB1_DIV1;
 800081e:	2300      	movs	r3, #0
 8000820:	60bb      	str	r3, [r7, #8]
	RCC_ClkInit.APB2ClkDivider =RCC_HCLK_APB2_DIV1;
 8000822:	2300      	movs	r3, #0
 8000824:	60fb      	str	r3, [r7, #12]
	ret = HALL_RCC_ClockConfig(&RCC_ClkInit);
 8000826:	1d3b      	adds	r3, r7, #4
 8000828:	4618      	mov	r0, r3
 800082a:	f7ff fe39 	bl	80004a0 <HALL_RCC_ClockConfig>
 800082e:	4603      	mov	r3, r0
 8000830:	f887 3027 	strb.w	r3, [r7, #39]	; 0x27
	return ret;
 8000834:	f897 3027 	ldrb.w	r3, [r7, #39]	; 0x27
}
 8000838:	4618      	mov	r0, r3
 800083a:	3728      	adds	r7, #40	; 0x28
 800083c:	46bd      	mov	sp, r7
 800083e:	bd80      	pop	{r7, pc}

08000840 <Reset_Handler>:

  .section .text.Reset_Handler
  .weak Reset_Handler
  .type Reset_Handler, %function
Reset_Handler:
  ldr   r0, =_estack
 8000840:	480d      	ldr	r0, [pc, #52]	; (8000878 <LoopForever+0x2>)
  mov   sp, r0          /* set stack pointer */
 8000842:	4685      	mov	sp, r0
/* Call the clock system initialization function.*/
  bl  SystemInit
 8000844:	f3af 8000 	nop.w

/* Copy the data segment initializers from flash to SRAM */
  ldr r0, =_sdata
 8000848:	480c      	ldr	r0, [pc, #48]	; (800087c <LoopForever+0x6>)
  ldr r1, =_edata
 800084a:	490d      	ldr	r1, [pc, #52]	; (8000880 <LoopForever+0xa>)
  ldr r2, =_sidata
 800084c:	4a0d      	ldr	r2, [pc, #52]	; (8000884 <LoopForever+0xe>)
  movs r3, #0
 800084e:	2300      	movs	r3, #0
  b LoopCopyDataInit
 8000850:	e002      	b.n	8000858 <LoopCopyDataInit>

08000852 <CopyDataInit>:

CopyDataInit:
  ldr r4, [r2, r3]
 8000852:	58d4      	ldr	r4, [r2, r3]
  str r4, [r0, r3]
 8000854:	50c4      	str	r4, [r0, r3]
  adds r3, r3, #4
 8000856:	3304      	adds	r3, #4

08000858 <LoopCopyDataInit>:

LoopCopyDataInit:
  adds r4, r0, r3
 8000858:	18c4      	adds	r4, r0, r3
  cmp r4, r1
 800085a:	428c      	cmp	r4, r1
  bcc CopyDataInit
 800085c:	d3f9      	bcc.n	8000852 <CopyDataInit>

/* Zero fill the bss segment. */
  ldr r2, =_sbss
 800085e:	4a0a      	ldr	r2, [pc, #40]	; (8000888 <LoopForever+0x12>)
  ldr r4, =_ebss
 8000860:	4c0a      	ldr	r4, [pc, #40]	; (800088c <LoopForever+0x16>)
  movs r3, #0
 8000862:	2300      	movs	r3, #0
  b LoopFillZerobss
 8000864:	e001      	b.n	800086a <LoopFillZerobss>

08000866 <FillZerobss>:

FillZerobss:
  str  r3, [r2]
 8000866:	6013      	str	r3, [r2, #0]
  adds r2, r2, #4
 8000868:	3204      	adds	r2, #4

0800086a <LoopFillZerobss>:

LoopFillZerobss:
  cmp r2, r4
 800086a:	42a2      	cmp	r2, r4
  bcc FillZerobss
 800086c:	d3fb      	bcc.n	8000866 <FillZerobss>

/* Call static constructors */
  bl __libc_init_array
 800086e:	f000 f811 	bl	8000894 <__libc_init_array>
/* Call the application's entry point.*/
  bl main
 8000872:	f7ff ff99 	bl	80007a8 <main>

08000876 <LoopForever>:

LoopForever:
  b LoopForever
 8000876:	e7fe      	b.n	8000876 <LoopForever>
  ldr   r0, =_estack
 8000878:	20010000 	.word	0x20010000
  ldr r0, =_sdata
 800087c:	20000000 	.word	0x20000000
  ldr r1, =_edata
 8000880:	20000020 	.word	0x20000020
  ldr r2, =_sidata
 8000884:	080008fc 	.word	0x080008fc
  ldr r2, =_sbss
 8000888:	20000020 	.word	0x20000020
  ldr r4, =_ebss
 800088c:	2000003c 	.word	0x2000003c

08000890 <ADC_IRQHandler>:
 * @retval : None
*/
  .section .text.Default_Handler,"ax",%progbits
Default_Handler:
Infinite_Loop:
  b Infinite_Loop
 8000890:	e7fe      	b.n	8000890 <ADC_IRQHandler>
	...

08000894 <__libc_init_array>:
 8000894:	b570      	push	{r4, r5, r6, lr}
 8000896:	4d0d      	ldr	r5, [pc, #52]	; (80008cc <__libc_init_array+0x38>)
 8000898:	4c0d      	ldr	r4, [pc, #52]	; (80008d0 <__libc_init_array+0x3c>)
 800089a:	1b64      	subs	r4, r4, r5
 800089c:	10a4      	asrs	r4, r4, #2
 800089e:	2600      	movs	r6, #0
 80008a0:	42a6      	cmp	r6, r4
 80008a2:	d109      	bne.n	80008b8 <__libc_init_array+0x24>
 80008a4:	4d0b      	ldr	r5, [pc, #44]	; (80008d4 <__libc_init_array+0x40>)
 80008a6:	4c0c      	ldr	r4, [pc, #48]	; (80008d8 <__libc_init_array+0x44>)
 80008a8:	f000 f818 	bl	80008dc <_init>
 80008ac:	1b64      	subs	r4, r4, r5
 80008ae:	10a4      	asrs	r4, r4, #2
 80008b0:	2600      	movs	r6, #0
 80008b2:	42a6      	cmp	r6, r4
 80008b4:	d105      	bne.n	80008c2 <__libc_init_array+0x2e>
 80008b6:	bd70      	pop	{r4, r5, r6, pc}
 80008b8:	f855 3b04 	ldr.w	r3, [r5], #4
 80008bc:	4798      	blx	r3
 80008be:	3601      	adds	r6, #1
 80008c0:	e7ee      	b.n	80008a0 <__libc_init_array+0xc>
 80008c2:	f855 3b04 	ldr.w	r3, [r5], #4
 80008c6:	4798      	blx	r3
 80008c8:	3601      	adds	r6, #1
 80008ca:	e7f2      	b.n	80008b2 <__libc_init_array+0x1e>
 80008cc:	080008f4 	.word	0x080008f4
 80008d0:	080008f4 	.word	0x080008f4
 80008d4:	080008f4 	.word	0x080008f4
 80008d8:	080008f8 	.word	0x080008f8

080008dc <_init>:
 80008dc:	b5f8      	push	{r3, r4, r5, r6, r7, lr}
 80008de:	bf00      	nop
 80008e0:	bcf8      	pop	{r3, r4, r5, r6, r7}
 80008e2:	bc08      	pop	{r3}
 80008e4:	469e      	mov	lr, r3
 80008e6:	4770      	bx	lr

080008e8 <_fini>:
 80008e8:	b5f8      	push	{r3, r4, r5, r6, r7, lr}
 80008ea:	bf00      	nop
 80008ec:	bcf8      	pop	{r3, r4, r5, r6, r7}
 80008ee:	bc08      	pop	{r3}
 80008f0:	469e      	mov	lr, r3
 80008f2:	4770      	bx	lr
